target datalayout = "e-m:e-p270:32:32-p271:32:32-p272:64:64-i64:64-i128:128-f80:128-n8:16:32:64-S128"
target triple = "x86_64-pc-linux-gnu"

%struct.PageHeaderData = type { %struct.PageXLogRecPtr, i16, i16, i16, i16, i16, i16, i32, [0 x %struct.ItemIdData] }
%struct.PageXLogRecPtr = type { i32, i32 }
%struct.ItemIdData = type { i32 }
%struct.GISTPageOpaqueData = type { %struct.PageXLogRecPtr, i32, i16, i16 }

; Function Attrs: inlinehint nounwind uwtable
define internal void @PageValidateSpecialPointer(ptr noundef %0) #2 {
  %2 = alloca ptr, align 8
  store ptr %0, ptr %2, align 8
  ret void
}

; Function Attrs: nounwind uwtable
define dso_local void @gist_mask(ptr noundef %0, i32 noundef %1) #0 {
  %3 = alloca ptr, align 8
  %4 = alloca i32, align 4
  %5 = alloca ptr, align 8
  store ptr %0, ptr %3, align 8
  store i32 %1, ptr %4, align 4
  call void @llvm.lifetime.start.p0(i64 8, ptr %5) #6
  %6 = load ptr, ptr %3, align 8
  store ptr %6, ptr %5, align 8
  %7 = load ptr, ptr %5, align 8
  call void @mask_page_lsn_and_checksum(ptr noundef %7)
  %8 = load ptr, ptr %5, align 8
  call void @mask_page_hint_bits(ptr noundef %8)
  %9 = load ptr, ptr %5, align 8
  call void @mask_unused_space(ptr noundef %9)
  %10 = load ptr, ptr %5, align 8
  call void @PageValidateSpecialPointer(ptr noundef %10)
  %11 = load ptr, ptr %5, align 8
  %12 = load ptr, ptr %5, align 8
  %13 = getelementptr inbounds nuw %struct.PageHeaderData, ptr %12, i32 0, i32 5
  %14 = load i16, ptr %13, align 4
  %15 = zext i16 %14 to i32
  %16 = sext i32 %15 to i64
  %17 = getelementptr inbounds i8, ptr %11, i64 %16
  %18 = getelementptr inbounds nuw %struct.GISTPageOpaqueData, ptr %17, i32 0, i32 0
  %19 = getelementptr inbounds nuw %struct.PageXLogRecPtr, ptr %18, i32 0, i32 0
  store i32 0, ptr %19, align 4
  %20 = load ptr, ptr %5, align 8
  call void @PageValidateSpecialPointer(ptr noundef %20)
  %21 = load ptr, ptr %5, align 8
  %22 = load ptr, ptr %5, align 8
  %23 = getelementptr inbounds nuw %struct.PageHeaderData, ptr %22, i32 0, i32 5
  %24 = load i16, ptr %23, align 4
  %25 = zext i16 %24 to i32
  %26 = sext i32 %25 to i64
  %27 = getelementptr inbounds i8, ptr %21, i64 %26
  %28 = getelementptr inbounds nuw %struct.GISTPageOpaqueData, ptr %27, i32 0, i32 0
  %29 = getelementptr inbounds nuw %struct.PageXLogRecPtr, ptr %28, i32 0, i32 1
  store i32 0, ptr %29, align 4
  %30 = load ptr, ptr %5, align 8
  call void @PageValidateSpecialPointer(ptr noundef %30)
  %31 = load ptr, ptr %5, align 8
  %32 = load ptr, ptr %5, align 8
  %33 = getelementptr inbounds nuw %struct.PageHeaderData, ptr %32, i32 0, i32 5
  %34 = load i16, ptr %33, align 4
  %35 = zext i16 %34 to i32
  %36 = sext i32 %35 to i64
  %37 = getelementptr inbounds i8, ptr %31, i64 %36
  %38 = getelementptr inbounds nuw %struct.GISTPageOpaqueData, ptr %37, i32 0, i32 2
  %39 = load i16, ptr %38, align 4
  %40 = zext i16 %39 to i32
  %41 = or i32 %40, 8
  %42 = trunc i32 %41 to i16
  store i16 %42, ptr %38, align 4
  %43 = load ptr, ptr %5, align 8
  call void @PageValidateSpecialPointer(ptr noundef %43)
  %44 = load ptr, ptr %5, align 8
  %45 = load ptr, ptr %5, align 8
  %46 = getelementptr inbounds nuw %struct.PageHeaderData, ptr %45, i32 0, i32 5
  %47 = load i16, ptr %46, align 4
  %48 = zext i16 %47 to i32
  %49 = sext i32 %48 to i64
  %50 = getelementptr inbounds i8, ptr %44, i64 %49
  %51 = getelementptr inbounds nuw %struct.GISTPageOpaqueData, ptr %50, i32 0, i32 2
  %52 = load i16, ptr %51, align 4
  %53 = zext i16 %52 to i32
  %54 = and i32 %53, 1
  %55 = icmp ne i32 %54, 0
  br i1 %55, label %56, label %58

56:                                               ; preds = %2
  %57 = load ptr, ptr %5, align 8
  call void @mask_lp_flags(ptr noundef %57)
  br label %58

58:                                               ; preds = %56, %2
  %59 = load ptr, ptr %5, align 8
  call void @PageValidateSpecialPointer(ptr noundef %59)
  %60 = load ptr, ptr %5, align 8
  %61 = load ptr, ptr %5, align 8
  %62 = getelementptr inbounds nuw %struct.PageHeaderData, ptr %61, i32 0, i32 5
  %63 = load i16, ptr %62, align 4
  %64 = zext i16 %63 to i32
  %65 = sext i32 %64 to i64
  %66 = getelementptr inbounds i8, ptr %60, i64 %65
  %67 = getelementptr inbounds nuw %struct.GISTPageOpaqueData, ptr %66, i32 0, i32 2
  %68 = load i16, ptr %67, align 4
  %69 = zext i16 %68 to i32
  %70 = and i32 %69, -17
  %71 = trunc i32 %70 to i16
  store i16 %71, ptr %67, align 4
  call void @llvm.lifetime.end.p0(i64 8, ptr %5) #6
  ret void
}