; Function Attrs: nounwind uwtable
define dso_local void @gist_mask(ptr noundef %0, i32 noundef %1) local_unnamed_addr #0 {
  tail call void @mask_page_lsn_and_checksum(ptr noundef %0) #6
  tail call void @mask_page_hint_bits(ptr noundef %0) #6
  tail call void @mask_unused_space(ptr noundef %0) #6
  %3 = getelementptr inbounds nuw i8, ptr %0, i64 16
  %4 = load i16, ptr %3, align 4
  %5 = zext i16 %4 to i64
  %6 = getelementptr inbounds nuw i8, ptr %0, i64 %5
  store i32 0, ptr %6, align 4
  %7 = load i16, ptr %3, align 4
  %8 = zext i16 %7 to i64
  %9 = getelementptr inbounds nuw i8, ptr %0, i64 %8
  %10 = getelementptr inbounds nuw i8, ptr %9, i64 4
  store i32 0, ptr %10, align 4
  %11 = load i16, ptr %3, align 4
  %12 = zext i16 %11 to i64
  %13 = getelementptr inbounds nuw i8, ptr %0, i64 %12
  %14 = getelementptr inbounds nuw i8, ptr %13, i64 12
  %15 = load i16, ptr %14, align 4
  %16 = or i16 %15, 8
  store i16 %16, ptr %14, align 4
  %17 = load i16, ptr %3, align 4
  %18 = zext i16 %17 to i64
  %19 = getelementptr inbounds nuw i8, ptr %0, i64 %18
  %20 = getelementptr inbounds nuw i8, ptr %19, i64 12
  %21 = load i16, ptr %20, align 4
  %22 = and i16 %21, 1
  %.not = icmp eq i16 %22, 0
  br i1 %.not, label %24, label %23

23:                                               ; preds = %2
  tail call void @mask_lp_flags(ptr noundef nonnull %0) #6
  %.pre = load i16, ptr %3, align 4
  %.phi.trans.insert = zext i16 %.pre to i64
  %.phi.trans.insert20 = getelementptr inbounds nuw i8, ptr %0, i64 %.phi.trans.insert
  %.phi.trans.insert21 = getelementptr inbounds nuw i8, ptr %.phi.trans.insert20, i64 12
  %.pre22 = load i16, ptr %.phi.trans.insert21, align 4
  br label %24

24:                                               ; preds = %23, %2
  %.pre-phi = phi i64 [ %.phi.trans.insert, %23 ], [ %18, %2 ]
  %25 = phi i16 [ %.pre22, %23 ], [ %21, %2 ]
  %26 = getelementptr inbounds nuw i8, ptr %0, i64 %.pre-phi
  %27 = getelementptr inbounds nuw i8, ptr %26, i64 12
  %28 = and i16 %25, -17
  store i16 %28, ptr %27, align 4
  ret void
}